target datalayout = "e-m:e-p270:32:32-p271:32:32-p272:64:64-i64:64-i128:128-f80:128-n8:16:32:64-S128"
target triple = "x86_64-pc-linux-gnu"

%class.cmMessenger = type { %"class.std::optional", i8, i8, i8, i8, %"class.std::shared_ptr" }
%"class.std::optional" = type { %"struct.std::_Optional_base" }
%"struct.std::_Optional_base" = type { %"struct.std::_Optional_payload" }
%"struct.std::_Optional_payload" = type { %"struct.std::_Optional_payload.base", [7 x i8] }
%"struct.std::_Optional_payload.base" = type { %"struct.std::_Optional_payload_base.base" }
%"struct.std::_Optional_payload_base.base" = type <{ %"union.std::_Optional_payload_base<std::__cxx11::basic_string<char>>::_Storage", i8 }>
%"union.std::_Optional_payload_base<std::__cxx11::basic_string<char>>::_Storage" = type { %"class.std::__cxx11::basic_string" }
%"class.std::__cxx11::basic_string" = type { %"struct.std::__cxx11::basic_string<char>::_Alloc_hider", i64, %union.anon }
%"struct.std::__cxx11::basic_string<char>::_Alloc_hider" = type { ptr }
%union.anon = type { i64, [8 x i8] }
%"class.std::shared_ptr" = type { %"class.std::__shared_ptr" }
%"class.std::__shared_ptr" = type { ptr, %"class.std::__shared_count" }
%"class.std::__shared_count" = type { ptr }

; Function Attrs: mustprogress nounwind uwtable
define linkonce_odr dso_local noundef zeroext i1 @_ZNK11cmMessenger22GetSuppressDevWarningsEv(ptr noundef nonnull align 8 dereferenceable(64) %0) #5 comdat align 2 {
  %2 = alloca ptr, align 8
  store ptr %0, ptr %2, align 8
  %3 = load ptr, ptr %2, align 8
  %4 = getelementptr inbounds %class.cmMessenger, ptr %3, i32 0, i32 1
  %5 = load i8, ptr %4, align 8
  %6 = trunc i8 %5 to i1
  ret i1 %6
}

; Function Attrs: mustprogress nounwind uwtable
define linkonce_odr dso_local noundef zeroext i1 @_ZNK11cmMessenger29GetSuppressDeprecatedWarningsEv(ptr noundef nonnull align 8 dereferenceable(64) %0) #5 comdat align 2 {
  %2 = alloca ptr, align 8
  store ptr %0, ptr %2, align 8
  %3 = load ptr, ptr %2, align 8
  %4 = getelementptr inbounds %class.cmMessenger, ptr %3, i32 0, i32 2
  %5 = load i8, ptr %4, align 1
  %6 = trunc i8 %5 to i1
  ret i1 %6
}

; Function Attrs: mustprogress nounwind uwtable
define linkonce_odr dso_local noundef zeroext i1 @_ZNK11cmMessenger29GetDeprecatedWarningsAsErrorsEv(ptr noundef nonnull align 8 dereferenceable(64) %0) #5 comdat align 2 {
  %2 = alloca ptr, align 8
  store ptr %0, ptr %2, align 8
  %3 = load ptr, ptr %2, align 8
  %4 = getelementptr inbounds %class.cmMessenger, ptr %3, i32 0, i32 4
  %5 = load i8, ptr %4, align 1
  %6 = trunc i8 %5 to i1
  ret i1 %6
}

; Function Attrs: mustprogress nounwind uwtable
define linkonce_odr dso_local noundef zeroext i1 @_ZNK11cmMessenger22GetDevWarningsAsErrorsEv(ptr noundef nonnull align 8 dereferenceable(64) %0) #5 comdat align 2 {
  %2 = alloca ptr, align 8
  store ptr %0, ptr %2, align 8
  %3 = load ptr, ptr %2, align 8
  %4 = getelementptr inbounds %class.cmMessenger, ptr %3, i32 0, i32 3
  %5 = load i8, ptr %4, align 2
  %6 = trunc i8 %5 to i1
  ret i1 %6
}

; Function Attrs: mustprogress uwtable
define dso_local noundef zeroext i1 @_ZNK11cmMessenger20IsMessageTypeVisibleE11MessageType(ptr noundef nonnull align 8 dereferenceable(64) %0, i32 noundef %1) #4 align 2 {
  %3 = alloca i1, align 1
  %4 = alloca ptr, align 8
  %5 = alloca i32, align 4
  store ptr %0, ptr %4, align 8
  store i32 %1, ptr %5, align 4
  %6 = load ptr, ptr %4, align 8
  %7 = load i32, ptr %5, align 4
  %8 = icmp eq i32 %7, 7
  br i1 %8, label %9, label %11

9:                                                ; preds = %2
  %10 = call noundef zeroext i1 @_ZNK11cmMessenger29GetDeprecatedWarningsAsErrorsEv(ptr noundef nonnull align 8 dereferenceable(64) %6)
  store i1 %10, ptr %3, align 1
  br label %29

11:                                               ; preds = %2
  %12 = load i32, ptr %5, align 4
  %13 = icmp eq i32 %12, 8
  br i1 %13, label %14, label %17

14:                                               ; preds = %11
  %15 = call noundef zeroext i1 @_ZNK11cmMessenger29GetSuppressDeprecatedWarningsEv(ptr noundef nonnull align 8 dereferenceable(64) %6)
  %16 = xor i1 %15, true
  store i1 %16, ptr %3, align 1
  br label %29

17:                                               ; preds = %11
  %18 = load i32, ptr %5, align 4
  %19 = icmp eq i32 %18, 1
  br i1 %19, label %20, label %22

20:                                               ; preds = %17
  %21 = call noundef zeroext i1 @_ZNK11cmMessenger22GetDevWarningsAsErrorsEv(ptr noundef nonnull align 8 dereferenceable(64) %6)
  store i1 %21, ptr %3, align 1
  br label %29

22:                                               ; preds = %17
  %23 = load i32, ptr %5, align 4
  %24 = icmp eq i32 %23, 0
  br i1 %24, label %25, label %28

25:                                               ; preds = %22
  %26 = call noundef zeroext i1 @_ZNK11cmMessenger22GetSuppressDevWarningsEv(ptr noundef nonnull align 8 dereferenceable(64) %6)
  %27 = xor i1 %26, true
  store i1 %27, ptr %3, align 1
  br label %29

28:                                               ; preds = %22
  store i1 true, ptr %3, align 1
  br label %29

29:                                               ; preds = %28, %25, %20, %14, %9
  %30 = load i1, ptr %3, align 1
  ret i1 %30
}

; Function Attrs: mustprogress uwtable
define dso_local noundef i32 @_ZNK11cmMessenger18ConvertMessageTypeE11MessageType(ptr noundef nonnull align 8 dereferenceable(64) %0, i32 noundef %1) #4 align 2 {
  %3 = alloca i32, align 4
  %4 = alloca ptr, align 8
  %5 = alloca i32, align 4
  store ptr %0, ptr %4, align 8
  store i32 %1, ptr %5, align 4
  %6 = load ptr, ptr %4, align 8
  %7 = load i32, ptr %5, align 4
  %8 = icmp eq i32 %7, 0
  br i1 %8, label %12, label %9

9:                                                ; preds = %2
  %10 = load i32, ptr %5, align 4
  %11 = icmp eq i32 %10, 1
  br i1 %11, label %12, label %16

12:                                               ; preds = %9, %2
  %13 = call noundef zeroext i1 @_ZNK11cmMessenger22GetDevWarningsAsErrorsEv(ptr noundef nonnull align 8 dereferenceable(64) %6)
  br i1 %13, label %14, label %15

14:                                               ; preds = %12
  store i32 1, ptr %3, align 4
  br label %28

15:                                               ; preds = %12
  store i32 0, ptr %3, align 4
  br label %28

16:                                               ; preds = %9
  %17 = load i32, ptr %5, align 4
  %18 = icmp eq i32 %17, 8
  br i1 %18, label %22, label %19

19:                                               ; preds = %16
  %20 = load i32, ptr %5, align 4
  %21 = icmp eq i32 %20, 7
  br i1 %21, label %22, label %26

22:                                               ; preds = %19, %16
  %23 = call noundef zeroext i1 @_ZNK11cmMessenger29GetDeprecatedWarningsAsErrorsEv(ptr noundef nonnull align 8 dereferenceable(64) %6)
  br i1 %23, label %24, label %25

24:                                               ; preds = %22
  store i32 7, ptr %3, align 4
  br label %28

25:                                               ; preds = %22
  store i32 8, ptr %3, align 4
  br label %28

26:                                               ; preds = %19
  %27 = load i32, ptr %5, align 4
  store i32 %27, ptr %3, align 4
  br label %28

28:                                               ; preds = %26, %25, %24, %15, %14
  %29 = load i32, ptr %3, align 4
  ret i32 %29
}

; Function Attrs: mustprogress uwtable
define dso_local void @_ZNK11cmMessenger12IssueMessageE11MessageTypeRKNSt7__cxx1112basic_stringIcSt11char_traitsIcESaIcEEERK19cmListFileBacktrace(ptr noundef nonnull align 8 dereferenceable(64) %0, i32 noundef %1, ptr noundef nonnull align 8 dereferenceable(32) %2, ptr noundef nonnull align 8 dereferenceable(16) %3) #4 align 2 {
  %5 = alloca ptr, align 8
  %6 = alloca i32, align 4
  %7 = alloca ptr, align 8
  %8 = alloca ptr, align 8
  %9 = alloca i8, align 1
  %10 = alloca i32, align 4
  store ptr %0, ptr %5, align 8
  store i32 %1, ptr %6, align 4
  store ptr %2, ptr %7, align 8
  store ptr %3, ptr %8, align 8
  %11 = load ptr, ptr %5, align 8
  store i8 0, ptr %9, align 1
  %12 = load i32, ptr %6, align 4
  %13 = call noundef i32 @_ZNK11cmMessenger18ConvertMessageTypeE11MessageType(ptr noundef nonnull align 8 dereferenceable(64) %11, i32 noundef %12)
  store i32 %13, ptr %10, align 4
  %14 = load i32, ptr %10, align 4
  %15 = load i32, ptr %6, align 4
  %16 = icmp ne i32 %14, %15
  br i1 %16, label %17, label %19

17:                                               ; preds = %4
  %18 = load i32, ptr %10, align 4
  store i32 %18, ptr %6, align 4
  store i8 1, ptr %9, align 1
  br label %19

19:                                               ; preds = %17, %4
  %20 = load i8, ptr %9, align 1
  %21 = trunc i8 %20 to i1
  br i1 %21, label %25, label %22

22:                                               ; preds = %19
  %23 = load i32, ptr %6, align 4
  %24 = call noundef zeroext i1 @_ZNK11cmMessenger20IsMessageTypeVisibleE11MessageType(ptr noundef nonnull align 8 dereferenceable(64) %11, i32 noundef %23)
  br i1 %24, label %25, label %29

25:                                               ; preds = %22, %19
  %26 = load i32, ptr %6, align 4
  %27 = load ptr, ptr %7, align 8
  %28 = load ptr, ptr %8, align 8
  call void @_ZNK11cmMessenger14DisplayMessageE11MessageTypeRKNSt7__cxx1112basic_stringIcSt11char_traitsIcESaIcEEERK19cmListFileBacktrace(ptr noundef nonnull align 8 dereferenceable(64) %11, i32 noundef %26, ptr noundef nonnull align 8 dereferenceable(32) %27, ptr noundef nonnull align 8 dereferenceable(16) %28)
  br label %29

29:                                               ; preds = %25, %22
  ret void
}