; Function Attrs: mustprogress uwtable
define dso_local void @_ZNK11cmMessenger12IssueMessageE11MessageTypeRKNSt7__cxx1112basic_stringIcSt11char_traitsIcESaIcEEERK19cmListFileBacktrace(ptr noundef nonnull align 8 dereferenceable(64) %0, i32 noundef %1, ptr noundef nonnull align 8 dereferenceable(32) %2, ptr noundef nonnull align 8 dereferenceable(16) %3) local_unnamed_addr #4 align 2 {
  %or.cond.i = icmp ult i32 %1, 2
  br i1 %or.cond.i, label %5, label %9

5:                                                ; preds = %4
  %6 = getelementptr inbounds nuw i8, ptr %0, i64 42
  %7 = load i8, ptr %6, align 2
  %8 = and i8 %7, 1
  %..i = zext nneg i8 %8 to i32
  br label %_ZNK11cmMessenger18ConvertMessageTypeE11MessageType.exit

9:                                                ; preds = %4
  %10 = add i32 %1, -7
  %or.cond3.i = icmp ult i32 %10, 2
  br i1 %or.cond3.i, label %11, label %_ZNK11cmMessenger18ConvertMessageTypeE11MessageType.exit.thread

11:                                               ; preds = %9
  %12 = getelementptr inbounds nuw i8, ptr %0, i64 43
  %13 = load i8, ptr %12, align 1
  %14 = trunc i8 %13 to i1
  %.10.i = select i1 %14, i32 7, i32 8
  br label %_ZNK11cmMessenger18ConvertMessageTypeE11MessageType.exit

_ZNK11cmMessenger18ConvertMessageTypeE11MessageType.exit: ; preds = %5, %11
  %.0.i = phi i32 [ %..i, %5 ], [ %.10.i, %11 ]
  %.not.not = icmp eq i32 %.0.i, %1
  br i1 %.not.not, label %_ZNK11cmMessenger18ConvertMessageTypeE11MessageType.exit.thread, label %_ZNK11cmMessenger20IsMessageTypeVisibleE11MessageType.exit.thread

_ZNK11cmMessenger18ConvertMessageTypeE11MessageType.exit.thread: ; preds = %9, %_ZNK11cmMessenger18ConvertMessageTypeE11MessageType.exit
  switch i32 %1, label %_ZNK11cmMessenger20IsMessageTypeVisibleE11MessageType.exit.thread [
    i32 7, label %15
    i32 8, label %19
    i32 1, label %23
    i32 0, label %_ZNK11cmMessenger20IsMessageTypeVisibleE11MessageType.exit
  ]

15:                                               ; preds = %_ZNK11cmMessenger18ConvertMessageTypeE11MessageType.exit.thread
  %16 = getelementptr inbounds nuw i8, ptr %0, i64 43
  %17 = load i8, ptr %16, align 1
  %18 = trunc i8 %17 to i1
  br i1 %18, label %_ZNK11cmMessenger20IsMessageTypeVisibleE11MessageType.exit.thread, label %30

19:                                               ; preds = %_ZNK11cmMessenger18ConvertMessageTypeE11MessageType.exit.thread
  %20 = getelementptr inbounds nuw i8, ptr %0, i64 41
  %21 = load i8, ptr %20, align 1
  %22 = trunc i8 %21 to i1
  br i1 %22, label %30, label %_ZNK11cmMessenger20IsMessageTypeVisibleE11MessageType.exit.thread

23:                                               ; preds = %_ZNK11cmMessenger18ConvertMessageTypeE11MessageType.exit.thread
  %24 = getelementptr inbounds nuw i8, ptr %0, i64 42
  %25 = load i8, ptr %24, align 2
  %26 = trunc i8 %25 to i1
  br i1 %26, label %_ZNK11cmMessenger20IsMessageTypeVisibleE11MessageType.exit.thread, label %30

_ZNK11cmMessenger20IsMessageTypeVisibleE11MessageType.exit: ; preds = %_ZNK11cmMessenger18ConvertMessageTypeE11MessageType.exit.thread
  %27 = getelementptr inbounds nuw i8, ptr %0, i64 40
  %28 = load i8, ptr %27, align 8
  %29 = trunc i8 %28 to i1
  br i1 %29, label %30, label %_ZNK11cmMessenger20IsMessageTypeVisibleE11MessageType.exit.thread

_ZNK11cmMessenger20IsMessageTypeVisibleE11MessageType.exit.thread: ; preds = %_ZNK11cmMessenger18ConvertMessageTypeE11MessageType.exit.thread, %23, %19, %15, %_ZNK11cmMessenger20IsMessageTypeVisibleE11MessageType.exit, %_ZNK11cmMessenger18ConvertMessageTypeE11MessageType.exit
  %.0.i16 = phi i32 [ 0, %_ZNK11cmMessenger20IsMessageTypeVisibleE11MessageType.exit ], [ %.0.i, %_ZNK11cmMessenger18ConvertMessageTypeE11MessageType.exit ], [ 7, %15 ], [ 8, %19 ], [ 1, %23 ], [ %1, %_ZNK11cmMessenger18ConvertMessageTypeE11MessageType.exit.thread ]
  tail call void @_ZNK11cmMessenger14DisplayMessageE11MessageTypeRKNSt7__cxx1112basic_stringIcSt11char_traitsIcESaIcEEERK19cmListFileBacktrace(ptr noundef nonnull align 8 dereferenceable(64) %0, i32 noundef %.0.i16, ptr noundef nonnull align 8 dereferenceable(32) %2, ptr noundef nonnull align 8 dereferenceable(16) %3)
  br label %30

30:                                               ; preds = %23, %19, %15, %_ZNK11cmMessenger20IsMessageTypeVisibleE11MessageType.exit.thread, %_ZNK11cmMessenger20IsMessageTypeVisibleE11MessageType.exit
  ret void
}